target datalayout = "e-m:e-p270:32:32-p271:32:32-p272:64:64-i64:64-i128:128-f80:128-n8:16:32:64-S128"
target triple = "x86_64-unknown-linux-gnu"

%"class.cvc5::internal::prop::LearnedDb" = type { %"class.cvc5::context::CDHashSet", %"class.cvc5::context::CDHashSet", %"class.cvc5::context::CDHashSet", %"class.cvc5::context::CDHashSet", %"class.cvc5::context::CDHashSet", %"class.cvc5::context::CDHashSet" }
%"class.cvc5::context::CDHashSet" = type { %"class.cvc5::context::CDInsertHashMap" }
%"class.cvc5::context::CDInsertHashMap" = type { %"class.cvc5::context::ContextObj", ptr, i64 }
%"class.cvc5::context::ContextObj" = type { ptr, ptr, ptr, ptr, ptr }

; Function Attrs: mustprogress nounwind uwtable
define linkonce_odr hidden void @_ZN4cvc57context10ContextObjD2Ev(ptr noundef nonnull align 8 dereferenceable(40) %this) unnamed_addr #5 comdat align 2 {
entry:
  %this.addr = alloca ptr, align 8
  store ptr %this, ptr %this.addr, align 8
  ret void
}

; Function Attrs: mustprogress nounwind uwtable
define linkonce_odr hidden void @_ZN4cvc57context15CDInsertHashMapINS_8internal12NodeTemplateILb1EEEbSt4hashIS4_EED2Ev(ptr noundef nonnull align 8 dereferenceable(56) %this) unnamed_addr #5 comdat align 2 personality ptr @__gxx_personality_v0 {
entry:
  %this.addr = alloca ptr, align 8
  store ptr %this, ptr %this.addr, align 8
  %this1 = load ptr, ptr %this.addr, align 8
  store ptr getelementptr inbounds ({ [6 x ptr] }, ptr @_ZTVN4cvc57context15CDInsertHashMapINS_8internal12NodeTemplateILb1EEEbSt4hashIS4_EEE, i32 0, i32 0, i32 2), ptr %this1, align 8
  invoke void @_ZN4cvc57context10ContextObj7destroyEv(ptr noundef nonnull align 8 dereferenceable(40) %this1)
          to label %invoke.cont unwind label %terminate.lpad

invoke.cont:                                      ; preds = %entry
  %d_insertMap = getelementptr inbounds %"class.cvc5::context::CDInsertHashMap", ptr %this1, i32 0, i32 1
  %0 = load ptr, ptr %d_insertMap, align 8
  %isnull = icmp eq ptr %0, null
  br i1 %isnull, label %delete.end, label %delete.notnull

delete.notnull:                                   ; preds = %invoke.cont
  call void @_ZN4cvc57context13InsertHashMapINS_8internal12NodeTemplateILb1EEEbSt4hashIS4_EED2Ev(ptr noundef nonnull align 8 dereferenceable(136) %0) #3
  call void @_ZdlPv(ptr noundef %0) #15
  br label %delete.end

delete.end:                                       ; preds = %delete.notnull, %invoke.cont
  call void @_ZN4cvc57context10ContextObjD2Ev(ptr noundef nonnull align 8 dereferenceable(40) %this1) #3
  ret void

terminate.lpad:                                   ; preds = %entry
  %1 = landingpad { ptr, i32 }
          catch ptr null
  %2 = extractvalue { ptr, i32 } %1, 0
  call void @__clang_call_terminate(ptr %2) #14
  unreachable
}

; Function Attrs: mustprogress nounwind uwtable
define linkonce_odr hidden void @_ZN4cvc57context9CDHashSetINS_8internal12NodeTemplateILb1EEESt4hashIS4_EED2Ev(ptr noundef nonnull align 8 dereferenceable(56) %this) unnamed_addr #5 comdat align 2 {
entry:
  %this.addr = alloca ptr, align 8
  store ptr %this, ptr %this.addr, align 8
  %this1 = load ptr, ptr %this.addr, align 8
  call void @_ZN4cvc57context15CDInsertHashMapINS_8internal12NodeTemplateILb1EEEbSt4hashIS4_EED2Ev(ptr noundef nonnull align 8 dereferenceable(56) %this1) #3
  ret void
}

; Function Attrs: mustprogress nounwind uwtable
define hidden void @_ZN4cvc58internal4prop9LearnedDbD2Ev(ptr noundef nonnull align 8 dereferenceable(336) %this) unnamed_addr #5 align 2 {
entry:
  %this.addr = alloca ptr, align 8
  store ptr %this, ptr %this.addr, align 8
  %this1 = load ptr, ptr %this.addr, align 8
  %d_internalLits = getelementptr inbounds %"class.cvc5::internal::prop::LearnedDb", ptr %this1, i32 0, i32 5
  call void @_ZN4cvc57context9CDHashSetINS_8internal12NodeTemplateILb1EEESt4hashIS4_EED2Ev(ptr noundef nonnull align 8 dereferenceable(56) %d_internalLits) #3
  %d_cpropLits = getelementptr inbounds %"class.cvc5::internal::prop::LearnedDb", ptr %this1, i32 0, i32 4
  call void @_ZN4cvc57context9CDHashSetINS_8internal12NodeTemplateILb1EEESt4hashIS4_EED2Ev(ptr noundef nonnull align 8 dereferenceable(56) %d_cpropLits) #3
  %d_solvableLits = getelementptr inbounds %"class.cvc5::internal::prop::LearnedDb", ptr %this1, i32 0, i32 3
  call void @_ZN4cvc57context9CDHashSetINS_8internal12NodeTemplateILb1EEESt4hashIS4_EED2Ev(ptr noundef nonnull align 8 dereferenceable(56) %d_solvableLits) #3
  %d_inputLits = getelementptr inbounds %"class.cvc5::internal::prop::LearnedDb", ptr %this1, i32 0, i32 2
  call void @_ZN4cvc57context9CDHashSetINS_8internal12NodeTemplateILb1EEESt4hashIS4_EED2Ev(ptr noundef nonnull align 8 dereferenceable(56) %d_inputLits) #3
  %d_preprocessLits = getelementptr inbounds %"class.cvc5::internal::prop::LearnedDb", ptr %this1, i32 0, i32 1
  call void @_ZN4cvc57context9CDHashSetINS_8internal12NodeTemplateILb1EEESt4hashIS4_EED2Ev(ptr noundef nonnull align 8 dereferenceable(56) %d_preprocessLits) #3
  %d_preprocessSolvedLits = getelementptr inbounds %"class.cvc5::internal::prop::LearnedDb", ptr %this1, i32 0, i32 0
  call void @_ZN4cvc57context9CDHashSetINS_8internal12NodeTemplateILb1EEESt4hashIS4_EED2Ev(ptr noundef nonnull align 8 dereferenceable(56) %d_preprocessSolvedLits) #3
  ret void
}