; Function Attrs: mustprogress nounwind uwtable
define hidden void @_ZN4cvc58internal4prop9LearnedDbD2Ev(ptr noundef nonnull align 8 dereferenceable(336) %this) unnamed_addr #4 align 2 personality ptr @__gxx_personality_v0 {
entry:
  %d_internalLits = getelementptr inbounds i8, ptr %this, i64 280
  store ptr getelementptr inbounds ({ [6 x ptr] }, ptr @_ZTVN4cvc57context15CDInsertHashMapINS_8internal12NodeTemplateILb1EEEbSt4hashIS4_EEE, i64 0, i32 0, i64 2), ptr %d_internalLits, align 8
  invoke void @_ZN4cvc57context10ContextObj7destroyEv(ptr noundef nonnull align 8 dereferenceable(40) %d_internalLits)
          to label %invoke.cont.i.i unwind label %terminate.lpad.i.i

invoke.cont.i.i:                                  ; preds = %entry
  %d_insertMap.i.i = getelementptr inbounds i8, ptr %this, i64 320
  %0 = load ptr, ptr %d_insertMap.i.i, align 8
  %isnull.i.i = icmp eq ptr %0, null
  br i1 %isnull.i.i, label %_ZN4cvc57context9CDHashSetINS_8internal12NodeTemplateILb1EEESt4hashIS4_EED2Ev.exit, label %delete.notnull.i.i

delete.notnull.i.i:                               ; preds = %invoke.cont.i.i
  tail call void @_ZN4cvc57context13InsertHashMapINS_8internal12NodeTemplateILb1EEEbSt4hashIS4_EED2Ev(ptr noundef nonnull align 8 dereferenceable(136) %0) #21
  tail call void @_ZdlPv(ptr noundef nonnull %0) #20
  br label %_ZN4cvc57context9CDHashSetINS_8internal12NodeTemplateILb1EEESt4hashIS4_EED2Ev.exit

terminate.lpad.i.i:                               ; preds = %entry
  %1 = landingpad { ptr, i32 }
          catch ptr null
  %2 = extractvalue { ptr, i32 } %1, 0
  tail call void @__clang_call_terminate(ptr %2) #22
  unreachable

_ZN4cvc57context9CDHashSetINS_8internal12NodeTemplateILb1EEESt4hashIS4_EED2Ev.exit: ; preds = %invoke.cont.i.i, %delete.notnull.i.i
  %d_cpropLits = getelementptr inbounds i8, ptr %this, i64 224
  store ptr getelementptr inbounds ({ [6 x ptr] }, ptr @_ZTVN4cvc57context15CDInsertHashMapINS_8internal12NodeTemplateILb1EEEbSt4hashIS4_EEE, i64 0, i32 0, i64 2), ptr %d_cpropLits, align 8
  invoke void @_ZN4cvc57context10ContextObj7destroyEv(ptr noundef nonnull align 8 dereferenceable(40) %d_cpropLits)
          to label %invoke.cont.i.i2 unwind label %terminate.lpad.i.i1

invoke.cont.i.i2:                                 ; preds = %_ZN4cvc57context9CDHashSetINS_8internal12NodeTemplateILb1EEESt4hashIS4_EED2Ev.exit
  %d_insertMap.i.i3 = getelementptr inbounds i8, ptr %this, i64 264
  %3 = load ptr, ptr %d_insertMap.i.i3, align 8
  %isnull.i.i4 = icmp eq ptr %3, null
  br i1 %isnull.i.i4, label %_ZN4cvc57context9CDHashSetINS_8internal12NodeTemplateILb1EEESt4hashIS4_EED2Ev.exit6, label %delete.notnull.i.i5

delete.notnull.i.i5:                              ; preds = %invoke.cont.i.i2
  tail call void @_ZN4cvc57context13InsertHashMapINS_8internal12NodeTemplateILb1EEEbSt4hashIS4_EED2Ev(ptr noundef nonnull align 8 dereferenceable(136) %3) #21
  tail call void @_ZdlPv(ptr noundef nonnull %3) #20
  br label %_ZN4cvc57context9CDHashSetINS_8internal12NodeTemplateILb1EEESt4hashIS4_EED2Ev.exit6

terminate.lpad.i.i1:                              ; preds = %_ZN4cvc57context9CDHashSetINS_8internal12NodeTemplateILb1EEESt4hashIS4_EED2Ev.exit
  %4 = landingpad { ptr, i32 }
          catch ptr null
  %5 = extractvalue { ptr, i32 } %4, 0
  tail call void @__clang_call_terminate(ptr %5) #22
  unreachable

_ZN4cvc57context9CDHashSetINS_8internal12NodeTemplateILb1EEESt4hashIS4_EED2Ev.exit6: ; preds = %invoke.cont.i.i2, %delete.notnull.i.i5
  %d_solvableLits = getelementptr inbounds i8, ptr %this, i64 168
  store ptr getelementptr inbounds ({ [6 x ptr] }, ptr @_ZTVN4cvc57context15CDInsertHashMapINS_8internal12NodeTemplateILb1EEEbSt4hashIS4_EEE, i64 0, i32 0, i64 2), ptr %d_solvableLits, align 8
  invoke void @_ZN4cvc57context10ContextObj7destroyEv(ptr noundef nonnull align 8 dereferenceable(40) %d_solvableLits)
          to label %invoke.cont.i.i8 unwind label %terminate.lpad.i.i7

invoke.cont.i.i8:                                 ; preds = %_ZN4cvc57context9CDHashSetINS_8internal12NodeTemplateILb1EEESt4hashIS4_EED2Ev.exit6
  %d_insertMap.i.i9 = getelementptr inbounds i8, ptr %this, i64 208
  %6 = load ptr, ptr %d_insertMap.i.i9, align 8
  %isnull.i.i10 = icmp eq ptr %6, null
  br i1 %isnull.i.i10, label %_ZN4cvc57context9CDHashSetINS_8internal12NodeTemplateILb1EEESt4hashIS4_EED2Ev.exit12, label %delete.notnull.i.i11

delete.notnull.i.i11:                             ; preds = %invoke.cont.i.i8
  tail call void @_ZN4cvc57context13InsertHashMapINS_8internal12NodeTemplateILb1EEEbSt4hashIS4_EED2Ev(ptr noundef nonnull align 8 dereferenceable(136) %6) #21
  tail call void @_ZdlPv(ptr noundef nonnull %6) #20
  br label %_ZN4cvc57context9CDHashSetINS_8internal12NodeTemplateILb1EEESt4hashIS4_EED2Ev.exit12

terminate.lpad.i.i7:                              ; preds = %_ZN4cvc57context9CDHashSetINS_8internal12NodeTemplateILb1EEESt4hashIS4_EED2Ev.exit6
  %7 = landingpad { ptr, i32 }
          catch ptr null
  %8 = extractvalue { ptr, i32 } %7, 0
  tail call void @__clang_call_terminate(ptr %8) #22
  unreachable

_ZN4cvc57context9CDHashSetINS_8internal12NodeTemplateILb1EEESt4hashIS4_EED2Ev.exit12: ; preds = %invoke.cont.i.i8, %delete.notnull.i.i11
  %d_inputLits = getelementptr inbounds i8, ptr %this, i64 112
  store ptr getelementptr inbounds ({ [6 x ptr] }, ptr @_ZTVN4cvc57context15CDInsertHashMapINS_8internal12NodeTemplateILb1EEEbSt4hashIS4_EEE, i64 0, i32 0, i64 2), ptr %d_inputLits, align 8
  invoke void @_ZN4cvc57context10ContextObj7destroyEv(ptr noundef nonnull align 8 dereferenceable(40) %d_inputLits)
          to label %invoke.cont.i.i14 unwind label %terminate.lpad.i.i13

invoke.cont.i.i14:                                ; preds = %_ZN4cvc57context9CDHashSetINS_8internal12NodeTemplateILb1EEESt4hashIS4_EED2Ev.exit12
  %d_insertMap.i.i15 = getelementptr inbounds i8, ptr %this, i64 152
  %9 = load ptr, ptr %d_insertMap.i.i15, align 8
  %isnull.i.i16 = icmp eq ptr %9, null
  br i1 %isnull.i.i16, label %_ZN4cvc57context9CDHashSetINS_8internal12NodeTemplateILb1EEESt4hashIS4_EED2Ev.exit18, label %delete.notnull.i.i17

delete.notnull.i.i17:                             ; preds = %invoke.cont.i.i14
  tail call void @_ZN4cvc57context13InsertHashMapINS_8internal12NodeTemplateILb1EEEbSt4hashIS4_EED2Ev(ptr noundef nonnull align 8 dereferenceable(136) %9) #21
  tail call void @_ZdlPv(ptr noundef nonnull %9) #20
  br label %_ZN4cvc57context9CDHashSetINS_8internal12NodeTemplateILb1EEESt4hashIS4_EED2Ev.exit18

terminate.lpad.i.i13:                             ; preds = %_ZN4cvc57context9CDHashSetINS_8internal12NodeTemplateILb1EEESt4hashIS4_EED2Ev.exit12
  %10 = landingpad { ptr, i32 }
          catch ptr null
  %11 = extractvalue { ptr, i32 } %10, 0
  tail call void @__clang_call_terminate(ptr %11) #22
  unreachable

_ZN4cvc57context9CDHashSetINS_8internal12NodeTemplateILb1EEESt4hashIS4_EED2Ev.exit18: ; preds = %invoke.cont.i.i14, %delete.notnull.i.i17
  %d_preprocessLits = getelementptr inbounds i8, ptr %this, i64 56
  store ptr getelementptr inbounds ({ [6 x ptr] }, ptr @_ZTVN4cvc57context15CDInsertHashMapINS_8internal12NodeTemplateILb1EEEbSt4hashIS4_EEE, i64 0, i32 0, i64 2), ptr %d_preprocessLits, align 8
  invoke void @_ZN4cvc57context10ContextObj7destroyEv(ptr noundef nonnull align 8 dereferenceable(40) %d_preprocessLits)
          to label %invoke.cont.i.i20 unwind label %terminate.lpad.i.i19

invoke.cont.i.i20:                                ; preds = %_ZN4cvc57context9CDHashSetINS_8internal12NodeTemplateILb1EEESt4hashIS4_EED2Ev.exit18
  %d_insertMap.i.i21 = getelementptr inbounds i8, ptr %this, i64 96
  %12 = load ptr, ptr %d_insertMap.i.i21, align 8
  %isnull.i.i22 = icmp eq ptr %12, null
  br i1 %isnull.i.i22, label %_ZN4cvc57context9CDHashSetINS_8internal12NodeTemplateILb1EEESt4hashIS4_EED2Ev.exit24, label %delete.notnull.i.i23

delete.notnull.i.i23:                             ; preds = %invoke.cont.i.i20
  tail call void @_ZN4cvc57context13InsertHashMapINS_8internal12NodeTemplateILb1EEEbSt4hashIS4_EED2Ev(ptr noundef nonnull align 8 dereferenceable(136) %12) #21
  tail call void @_ZdlPv(ptr noundef nonnull %12) #20
  br label %_ZN4cvc57context9CDHashSetINS_8internal12NodeTemplateILb1EEESt4hashIS4_EED2Ev.exit24

terminate.lpad.i.i19:                             ; preds = %_ZN4cvc57context9CDHashSetINS_8internal12NodeTemplateILb1EEESt4hashIS4_EED2Ev.exit18
  %13 = landingpad { ptr, i32 }
          catch ptr null
  %14 = extractvalue { ptr, i32 } %13, 0
  tail call void @__clang_call_terminate(ptr %14) #22
  unreachable

_ZN4cvc57context9CDHashSetINS_8internal12NodeTemplateILb1EEESt4hashIS4_EED2Ev.exit24: ; preds = %invoke.cont.i.i20, %delete.notnull.i.i23
  store ptr getelementptr inbounds ({ [6 x ptr] }, ptr @_ZTVN4cvc57context15CDInsertHashMapINS_8internal12NodeTemplateILb1EEEbSt4hashIS4_EEE, i64 0, i32 0, i64 2), ptr %this, align 8
  invoke void @_ZN4cvc57context10ContextObj7destroyEv(ptr noundef nonnull align 8 dereferenceable(40) %this)
          to label %invoke.cont.i.i26 unwind label %terminate.lpad.i.i25

invoke.cont.i.i26:                                ; preds = %_ZN4cvc57context9CDHashSetINS_8internal12NodeTemplateILb1EEESt4hashIS4_EED2Ev.exit24
  %d_insertMap.i.i27 = getelementptr inbounds i8, ptr %this, i64 40
  %15 = load ptr, ptr %d_insertMap.i.i27, align 8
  %isnull.i.i28 = icmp eq ptr %15, null
  br i1 %isnull.i.i28, label %_ZN4cvc57context9CDHashSetINS_8internal12NodeTemplateILb1EEESt4hashIS4_EED2Ev.exit30, label %delete.notnull.i.i29

delete.notnull.i.i29:                             ; preds = %invoke.cont.i.i26
  tail call void @_ZN4cvc57context13InsertHashMapINS_8internal12NodeTemplateILb1EEEbSt4hashIS4_EED2Ev(ptr noundef nonnull align 8 dereferenceable(136) %15) #21
  tail call void @_ZdlPv(ptr noundef nonnull %15) #20
  br label %_ZN4cvc57context9CDHashSetINS_8internal12NodeTemplateILb1EEESt4hashIS4_EED2Ev.exit30

terminate.lpad.i.i25:                             ; preds = %_ZN4cvc57context9CDHashSetINS_8internal12NodeTemplateILb1EEESt4hashIS4_EED2Ev.exit24
  %16 = landingpad { ptr, i32 }
          catch ptr null
  %17 = extractvalue { ptr, i32 } %16, 0
  tail call void @__clang_call_terminate(ptr %17) #22
  unreachable

_ZN4cvc57context9CDHashSetINS_8internal12NodeTemplateILb1EEESt4hashIS4_EED2Ev.exit30: ; preds = %invoke.cont.i.i26, %delete.notnull.i.i29
  ret void
}